; Function Attrs: mustprogress uwtable
define dso_local noundef zeroext i1 @_ZNK14cmCacheManager10CacheEntry17GetPropertyAsBoolERKNSt7__cxx1112basic_stringIcSt11char_traitsIcESaIcEEE(ptr noundef nonnull align 8 dereferenceable(97) %0, ptr noundef nonnull align 8 dereferenceable(32) %1) local_unnamed_addr #5 align 2 {
  %3 = tail call noundef i32 @_ZNKSt7__cxx1112basic_stringIcSt11char_traitsIcESaIcEE7compareEPKc(ptr noundef nonnull align 8 dereferenceable(32) %1, ptr noundef nonnull @.str.51) #25
  %4 = icmp eq i32 %3, 0
  br i1 %4, label %5, label %9

5:                                                ; preds = %2
  %6 = getelementptr inbounds nuw i8, ptr %0, i64 32
  %7 = load i32, ptr %6, align 8, !tbaa !67
  %8 = tail call noundef nonnull align 8 dereferenceable(32) ptr @_ZN7cmState22CacheEntryTypeToStringB5cxx11EN12cmStateEnums14CacheEntryTypeE(i32 noundef %7)
  br label %_ZNK14cmCacheManager10CacheEntry11GetPropertyERKNSt7__cxx1112basic_stringIcSt11char_traitsIcESaIcEEE.exit.thread

9:                                                ; preds = %2
  %10 = tail call noundef i32 @_ZNKSt7__cxx1112basic_stringIcSt11char_traitsIcESaIcEE7compareEPKc(ptr noundef nonnull align 8 dereferenceable(32) %1, ptr noundef nonnull @.str.52) #25
  %11 = icmp eq i32 %10, 0
  br i1 %11, label %_ZNK14cmCacheManager10CacheEntry11GetPropertyERKNSt7__cxx1112basic_stringIcSt11char_traitsIcESaIcEEE.exit.thread, label %_ZNK14cmCacheManager10CacheEntry11GetPropertyERKNSt7__cxx1112basic_stringIcSt11char_traitsIcESaIcEEE.exit

_ZNK14cmCacheManager10CacheEntry11GetPropertyERKNSt7__cxx1112basic_stringIcSt11char_traitsIcESaIcEEE.exit: ; preds = %9
  %12 = getelementptr inbounds nuw i8, ptr %0, i64 40
  %13 = tail call ptr @_ZNK13cmPropertyMap16GetPropertyValueERKNSt7__cxx1112basic_stringIcSt11char_traitsIcESaIcEEE(ptr noundef nonnull align 8 dereferenceable(56) %12, ptr noundef nonnull align 8 dereferenceable(32) %1)
  %.not.i = icmp eq ptr %13, null
  br i1 %.not.i, label %_ZNK7cmValue4IsOnEv.exit, label %_ZNK14cmCacheManager10CacheEntry11GetPropertyERKNSt7__cxx1112basic_stringIcSt11char_traitsIcESaIcEEE.exit.thread

_ZNK14cmCacheManager10CacheEntry11GetPropertyERKNSt7__cxx1112basic_stringIcSt11char_traitsIcESaIcEEE.exit.thread: ; preds = %9, %5, %_ZNK14cmCacheManager10CacheEntry11GetPropertyERKNSt7__cxx1112basic_stringIcSt11char_traitsIcESaIcEEE.exit
  %.sroa.0.0.i4 = phi ptr [ %13, %_ZNK14cmCacheManager10CacheEntry11GetPropertyERKNSt7__cxx1112basic_stringIcSt11char_traitsIcESaIcEEE.exit ], [ %0, %9 ], [ %8, %5 ]
  %14 = load ptr, ptr %.sroa.0.0.i4, align 8, !tbaa !7
  %15 = getelementptr inbounds nuw i8, ptr %.sroa.0.0.i4, i64 8
  %16 = load i64, ptr %15, align 8, !tbaa !15
  %17 = tail call noundef zeroext i1 @_ZN7cmValue4IsOnESt17basic_string_viewIcSt11char_traitsIcEE(i64 %16, ptr %14) #25
  br label %_ZNK7cmValue4IsOnEv.exit

_ZNK7cmValue4IsOnEv.exit:                         ; preds = %_ZNK14cmCacheManager10CacheEntry11GetPropertyERKNSt7__cxx1112basic_stringIcSt11char_traitsIcESaIcEEE.exit, %_ZNK14cmCacheManager10CacheEntry11GetPropertyERKNSt7__cxx1112basic_stringIcSt11char_traitsIcESaIcEEE.exit.thread
  %18 = phi i1 [ false, %_ZNK14cmCacheManager10CacheEntry11GetPropertyERKNSt7__cxx1112basic_stringIcSt11char_traitsIcESaIcEEE.exit ], [ %17, %_ZNK14cmCacheManager10CacheEntry11GetPropertyERKNSt7__cxx1112basic_stringIcSt11char_traitsIcESaIcEEE.exit.thread ]
  ret i1 %18
}